target datalayout = "e-m:e-p270:32:32-p271:32:32-p272:64:64-i64:64-i128:128-f80:128-n8:16:32:64-S128"
target triple = "x86_64-pc-linux-gnu"

%struct.AVInteger = type { [8 x i16] }

@ff_log2_tab = external constant [256 x i8], align 16

; Function Attrs: alwaysinline nounwind willreturn memory(none) uwtable
define internal i32 @ff_log2_16bit_c(i32 noundef %0) #3 {
  %2 = alloca i32, align 4
  %3 = alloca i32, align 4
  store i32 %0, ptr %2, align 4, !tbaa !4
  call void @llvm.lifetime.start.p0(i64 4, ptr %3) #6
  store i32 0, ptr %3, align 4, !tbaa !4
  %4 = load i32, ptr %2, align 4, !tbaa !4
  %5 = and i32 %4, 65280
  %6 = icmp ne i32 %5, 0
  br i1 %6, label %7, label %12

7:                                                ; preds = %1
  %8 = load i32, ptr %2, align 4, !tbaa !4
  %9 = lshr i32 %8, 8
  store i32 %9, ptr %2, align 4, !tbaa !4
  %10 = load i32, ptr %3, align 4, !tbaa !4
  %11 = add nsw i32 %10, 8
  store i32 %11, ptr %3, align 4, !tbaa !4
  br label %12

12:                                               ; preds = %7, %1
  %13 = load i32, ptr %2, align 4, !tbaa !4
  %14 = zext i32 %13 to i64
  %15 = getelementptr inbounds nuw [256 x i8], ptr @ff_log2_tab, i64 0, i64 %14
  %16 = load i8, ptr %15, align 1, !tbaa !13
  %17 = zext i8 %16 to i32
  %18 = load i32, ptr %3, align 4, !tbaa !4
  %19 = add nsw i32 %18, %17
  store i32 %19, ptr %3, align 4, !tbaa !4
  %20 = load i32, ptr %3, align 4, !tbaa !4
  call void @llvm.lifetime.end.p0(i64 4, ptr %3) #6
  ret i32 %20
}

; Function Attrs: nounwind willreturn memory(none) uwtable
define i32 @av_log2_i(i64 %0, i64 %1) #0 {
  %3 = alloca i32, align 4
  %4 = alloca %struct.AVInteger, align 2
  %5 = alloca i32, align 4
  %6 = alloca i32, align 4
  %7 = getelementptr inbounds nuw { i64, i64 }, ptr %4, i32 0, i32 0
  store i64 %0, ptr %7, align 2
  %8 = getelementptr inbounds nuw { i64, i64 }, ptr %4, i32 0, i32 1
  store i64 %1, ptr %8, align 2
  call void @llvm.lifetime.start.p0(i64 4, ptr %5) #6
  store i32 7, ptr %5, align 4, !tbaa !4
  br label %9

9:                                                ; preds = %31, %2
  %10 = load i32, ptr %5, align 4, !tbaa !4
  %11 = icmp sge i32 %10, 0
  br i1 %11, label %12, label %34

12:                                               ; preds = %9
  %13 = getelementptr inbounds nuw %struct.AVInteger, ptr %4, i32 0, i32 0
  %14 = load i32, ptr %5, align 4, !tbaa !4
  %15 = sext i32 %14 to i64
  %16 = getelementptr inbounds [8 x i16], ptr %13, i64 0, i64 %15
  %17 = load i16, ptr %16, align 2, !tbaa !8
  %18 = icmp ne i16 %17, 0
  br i1 %18, label %19, label %30

19:                                               ; preds = %12
  %20 = getelementptr inbounds nuw %struct.AVInteger, ptr %4, i32 0, i32 0
  %21 = load i32, ptr %5, align 4, !tbaa !4
  %22 = sext i32 %21 to i64
  %23 = getelementptr inbounds [8 x i16], ptr %20, i64 0, i64 %22
  %24 = load i16, ptr %23, align 2, !tbaa !8
  %25 = zext i16 %24 to i32
  %26 = call i32 @ff_log2_16bit_c(i32 noundef %25) #7
  %27 = load i32, ptr %5, align 4, !tbaa !4
  %28 = mul nsw i32 16, %27
  %29 = add nsw i32 %26, %28
  store i32 %29, ptr %3, align 4
  store i32 1, ptr %6, align 4
  br label %35

30:                                               ; preds = %12
  br label %31

31:                                               ; preds = %30
  %32 = load i32, ptr %5, align 4, !tbaa !4
  %33 = add nsw i32 %32, -1
  store i32 %33, ptr %5, align 4, !tbaa !4
  br label %9, !llvm.loop !15

34:                                               ; preds = %9
  store i32 -1, ptr %3, align 4
  store i32 1, ptr %6, align 4
  br label %35

35:                                               ; preds = %34, %19
  call void @llvm.lifetime.end.p0(i64 4, ptr %5) #6
  %36 = load i32, ptr %3, align 4
  ret i32 %36
}