; Function Attrs: mustprogress nofree norecurse nosync nounwind willreturn memory(none) uwtable
define range(i32 -1, -2147483648) i32 @av_log2_i(i64 %0, i64 %1) local_unnamed_addr #0 {
  %3 = alloca %struct.AVInteger, align 8
  store i64 %0, ptr %3, align 8
  %4 = getelementptr inbounds nuw i8, ptr %3, i64 8
  store i64 %1, ptr %4, align 8
  br label %5

5:                                                ; preds = %2, %19
  %.09 = phi i32 [ 7, %2 ], [ %20, %19 ]
  %6 = zext nneg i32 %.09 to i64
  %7 = getelementptr inbounds nuw [8 x i16], ptr %3, i64 0, i64 %6
  %8 = load i16, ptr %7, align 2, !tbaa !4
  %.not = icmp eq i16 %8, 0
  br i1 %.not, label %19, label %9

9:                                                ; preds = %5
  %10 = zext i16 %8 to i32
  %.not.i = icmp ult i16 %8, 256
  %11 = lshr i32 %10, 8
  %spec.select.i = select i1 %.not.i, i32 %10, i32 %11
  %spec.select7.i = select i1 %.not.i, i32 0, i32 8
  %12 = zext nneg i32 %spec.select.i to i64
  %13 = getelementptr inbounds nuw [256 x i8], ptr @ff_log2_tab, i64 0, i64 %12
  %14 = load i8, ptr %13, align 1, !tbaa !10
  %15 = zext i8 %14 to i32
  %16 = shl nsw i32 %.09, 4
  %17 = or disjoint i32 %spec.select7.i, %16
  %18 = add nuw nsw i32 %17, %15
  br label %.loopexit

19:                                               ; preds = %5
  %20 = add nsw i32 %.09, -1
  %.not12 = icmp eq i32 %.09, 0
  br i1 %.not12, label %.loopexit, label %5, !llvm.loop !12

.loopexit:                                        ; preds = %19, %9
  %.06 = phi i32 [ %18, %9 ], [ -1, %19 ]
  ret i32 %.06
}